(dp0
Vengine
p1
S'pdflatex'
p2
sVpackages
p3
c__builtin__
set
p4
((lp5
Vhyperref
p6
aVsubfigure
p7
aVamsmath
p8
aVicml2015
p9
aVtimes
p10
aVgraphicx
p11
aVnatbib
p12
aVamssymb
p13
atp14
Rp15
sVfiles_with_guttermarks
p16
g4
((lp17
V/Users/daway/Documents/Princeton/COS513/COS513-Finance/paper-latex/future_work.tex
p18
aV/Users/daway/Documents/Princeton/COS513/COS513-Finance/paper-latex/methods-and-evaluation.tex
p19
aV/Users/daway/Documents/Princeton/COS513/COS513-Finance/paper-latex/motivating-analysis.tex
p20
aV/Users/daway/Documents/Princeton/COS513/COS513-Finance/paper-latex/./results.tex
p21
aS'main.tex'
p22
atp23
Rp24
sVsynctex
p25
I01
s.