(dp0
Vengine
p1
S'pdflatex'
p2
sVpackages
p3
c__builtin__
set
p4
((lp5
Vhyperref
p6
aVsubfigure
p7
aVamsmath
p8
aVtimes
p9
aVgraphicx
p10
aVamssymb
p11
atp12
Rp13
sVfiles_with_guttermarks
p14
g4
((lp15
V/Users/daway/Documents/Princeton/COS513/COS513-Finance/presentations/./2015-11-18.tex
p16
aS'2015-11-18.tex'
p17
atp18
Rp19
sVsynctex
p20
I01
s.